target datalayout = "e-m:e-p270:32:32-p271:32:32-p272:64:64-i64:64-i128:128-f80:128-n8:16:32:64-S128"
target triple = "x86_64-pc-linux-gnu"

%"class.std::__cxx11::basic_string" = type { %"struct.std::__cxx11::basic_string<char>::_Alloc_hider", i64, %union.anon }
%"struct.std::__cxx11::basic_string<char>::_Alloc_hider" = type { ptr }
%union.anon = type { i64, [8 x i8] }
%class.cmSourceFileLocation = type { ptr, i8, i8, %"class.std::__cxx11::basic_string", %"class.std::__cxx11::basic_string" }

; Function Attrs: mustprogress uwtable
define dso_local void @_ZN20cmSourceFileLocation18DirectoryUseSourceEv(ptr noundef nonnull align 8 dereferenceable(80) %0) #5 align 2 {
  %2 = alloca ptr, align 8
  %3 = alloca %"class.std::__cxx11::basic_string", align 8
  store ptr %0, ptr %2, align 8
  %4 = load ptr, ptr %2, align 8
  %5 = getelementptr inbounds %class.cmSourceFileLocation, ptr %4, i32 0, i32 1
  %6 = load i8, ptr %5, align 8
  %7 = trunc i8 %6 to i1
  br i1 %7, label %8, label %16

8:                                                ; preds = %1
  %9 = getelementptr inbounds %class.cmSourceFileLocation, ptr %4, i32 0, i32 3
  %10 = getelementptr inbounds %class.cmSourceFileLocation, ptr %4, i32 0, i32 0
  %11 = load ptr, ptr %10, align 8
  %12 = call noundef nonnull align 8 dereferenceable(32) ptr @_ZNK10cmMakefile25GetCurrentSourceDirectoryB5cxx11Ev(ptr noundef nonnull align 8 dereferenceable(3520) %11)
  call void @_ZN5cmsys11SystemTools16CollapseFullPathERKNSt7__cxx1112basic_stringIcSt11char_traitsIcESaIcEEES8_(ptr dead_on_unwind writable sret(%"class.std::__cxx11::basic_string") align 8 %3, ptr noundef nonnull align 8 dereferenceable(32) %9, ptr noundef nonnull align 8 dereferenceable(32) %12)
  %13 = getelementptr inbounds %class.cmSourceFileLocation, ptr %4, i32 0, i32 3
  %14 = call noundef nonnull align 8 dereferenceable(32) ptr @_ZNSt7__cxx1112basic_stringIcSt11char_traitsIcESaIcEEaSEOS4_(ptr noundef nonnull align 8 dereferenceable(32) %13, ptr noundef nonnull align 8 dereferenceable(32) %3) #3
  call void @_ZNSt7__cxx1112basic_stringIcSt11char_traitsIcESaIcEED1Ev(ptr noundef nonnull align 8 dereferenceable(32) %3) #3
  %15 = getelementptr inbounds %class.cmSourceFileLocation, ptr %4, i32 0, i32 1
  store i8 0, ptr %15, align 8
  br label %16

16:                                               ; preds = %8, %1
  ret void
}

; Function Attrs: mustprogress uwtable
define dso_local void @_ZN20cmSourceFileLocationC2EPK10cmMakefileRKNSt7__cxx1112basic_stringIcSt11char_traitsIcESaIcEEE24cmSourceFileLocationKind(ptr noundef nonnull align 8 dereferenceable(80) %0, ptr noundef %1, ptr noundef nonnull align 8 dereferenceable(32) %2, i32 noundef %3) unnamed_addr #5 align 2 personality ptr @__gxx_personality_v0 {
  %5 = alloca ptr, align 8
  %6 = alloca ptr, align 8
  %7 = alloca ptr, align 8
  %8 = alloca i32, align 4
  %9 = alloca ptr, align 8
  %10 = alloca i32, align 4
  %11 = alloca %"class.std::__cxx11::basic_string", align 8
  %12 = alloca %"class.std::__cxx11::basic_string", align 8
  %13 = alloca %"class.std::__cxx11::basic_string", align 8
  store ptr %0, ptr %5, align 8
  store ptr %1, ptr %6, align 8
  store ptr %2, ptr %7, align 8
  store i32 %3, ptr %8, align 4
  %14 = load ptr, ptr %5, align 8
  %15 = getelementptr inbounds %class.cmSourceFileLocation, ptr %14, i32 0, i32 0
  %16 = load ptr, ptr %6, align 8
  store ptr %16, ptr %15, align 8
  %17 = getelementptr inbounds %class.cmSourceFileLocation, ptr %14, i32 0, i32 1
  store i8 1, ptr %17, align 8
  %18 = getelementptr inbounds %class.cmSourceFileLocation, ptr %14, i32 0, i32 2
  store i8 1, ptr %18, align 1
  %19 = getelementptr inbounds %class.cmSourceFileLocation, ptr %14, i32 0, i32 3
  call void @_ZNSt7__cxx1112basic_stringIcSt11char_traitsIcESaIcEEC1Ev(ptr noundef nonnull align 8 dereferenceable(32) %19) #3
  %20 = getelementptr inbounds %class.cmSourceFileLocation, ptr %14, i32 0, i32 4
  call void @_ZNSt7__cxx1112basic_stringIcSt11char_traitsIcESaIcEEC1Ev(ptr noundef nonnull align 8 dereferenceable(32) %20) #3
  %21 = load ptr, ptr %7, align 8
  %22 = invoke noundef zeroext i1 @_ZN5cmsys11SystemTools14FileIsFullPathERKNSt7__cxx1112basic_stringIcSt11char_traitsIcESaIcEEE(ptr noundef nonnull align 8 dereferenceable(32) %21)
          to label %23 unwind label %40

23:                                               ; preds = %4
  %24 = xor i1 %22, true
  %25 = getelementptr inbounds %class.cmSourceFileLocation, ptr %14, i32 0, i32 1
  %26 = zext i1 %24 to i8
  store i8 %26, ptr %25, align 8
  %27 = getelementptr inbounds %class.cmSourceFileLocation, ptr %14, i32 0, i32 2
  store i8 1, ptr %27, align 1
  %28 = load ptr, ptr %7, align 8
  invoke void @_ZN5cmsys11SystemTools15GetFilenamePathERKNSt7__cxx1112basic_stringIcSt11char_traitsIcESaIcEEE(ptr dead_on_unwind writable sret(%"class.std::__cxx11::basic_string") align 8 %11, ptr noundef nonnull align 8 dereferenceable(32) %28)
          to label %29 unwind label %40

29:                                               ; preds = %23
  %30 = getelementptr inbounds %class.cmSourceFileLocation, ptr %14, i32 0, i32 3
  %31 = call noundef nonnull align 8 dereferenceable(32) ptr @_ZNSt7__cxx1112basic_stringIcSt11char_traitsIcESaIcEEaSEOS4_(ptr noundef nonnull align 8 dereferenceable(32) %30, ptr noundef nonnull align 8 dereferenceable(32) %11) #3
  call void @_ZNSt7__cxx1112basic_stringIcSt11char_traitsIcESaIcEED1Ev(ptr noundef nonnull align 8 dereferenceable(32) %11) #3
  %32 = getelementptr inbounds %class.cmSourceFileLocation, ptr %14, i32 0, i32 3
  %33 = invoke noundef zeroext i1 @_ZN5cmsys11SystemTools14FileIsFullPathERKNSt7__cxx1112basic_stringIcSt11char_traitsIcESaIcEEE(ptr noundef nonnull align 8 dereferenceable(32) %32)
          to label %34 unwind label %40

34:                                               ; preds = %29
  br i1 %33, label %35, label %44

35:                                               ; preds = %34
  %36 = getelementptr inbounds %class.cmSourceFileLocation, ptr %14, i32 0, i32 3
  invoke void @_ZN5cmsys11SystemTools16CollapseFullPathERKNSt7__cxx1112basic_stringIcSt11char_traitsIcESaIcEEE(ptr dead_on_unwind writable sret(%"class.std::__cxx11::basic_string") align 8 %12, ptr noundef nonnull align 8 dereferenceable(32) %36)
          to label %37 unwind label %40

37:                                               ; preds = %35
  %38 = getelementptr inbounds %class.cmSourceFileLocation, ptr %14, i32 0, i32 3
  %39 = call noundef nonnull align 8 dereferenceable(32) ptr @_ZNSt7__cxx1112basic_stringIcSt11char_traitsIcESaIcEEaSEOS4_(ptr noundef nonnull align 8 dereferenceable(32) %38, ptr noundef nonnull align 8 dereferenceable(32) %12) #3
  call void @_ZNSt7__cxx1112basic_stringIcSt11char_traitsIcESaIcEED1Ev(ptr noundef nonnull align 8 dereferenceable(32) %12) #3
  br label %44

40:                                               ; preds = %54, %51, %44, %35, %29, %23, %4
  %41 = landingpad { ptr, i32 }
          cleanup
  %42 = extractvalue { ptr, i32 } %41, 0
  store ptr %42, ptr %9, align 8
  %43 = extractvalue { ptr, i32 } %41, 1
  store i32 %43, ptr %10, align 4
  call void @_ZNSt7__cxx1112basic_stringIcSt11char_traitsIcESaIcEED1Ev(ptr noundef nonnull align 8 dereferenceable(32) %20) #3
  call void @_ZNSt7__cxx1112basic_stringIcSt11char_traitsIcESaIcEED1Ev(ptr noundef nonnull align 8 dereferenceable(32) %19) #3
  br label %58

44:                                               ; preds = %37, %34
  %45 = load ptr, ptr %7, align 8
  invoke void @_ZN5cmsys11SystemTools15GetFilenameNameERKNSt7__cxx1112basic_stringIcSt11char_traitsIcESaIcEEE(ptr dead_on_unwind writable sret(%"class.std::__cxx11::basic_string") align 8 %13, ptr noundef nonnull align 8 dereferenceable(32) %45)
          to label %46 unwind label %40

46:                                               ; preds = %44
  %47 = getelementptr inbounds %class.cmSourceFileLocation, ptr %14, i32 0, i32 4
  %48 = call noundef nonnull align 8 dereferenceable(32) ptr @_ZNSt7__cxx1112basic_stringIcSt11char_traitsIcESaIcEEaSEOS4_(ptr noundef nonnull align 8 dereferenceable(32) %47, ptr noundef nonnull align 8 dereferenceable(32) %13) #3
  call void @_ZNSt7__cxx1112basic_stringIcSt11char_traitsIcESaIcEED1Ev(ptr noundef nonnull align 8 dereferenceable(32) %13) #3
  %49 = load i32, ptr %8, align 4
  %50 = icmp eq i32 %49, 1
  br i1 %50, label %51, label %54

51:                                               ; preds = %46
  invoke void @_ZN20cmSourceFileLocation18DirectoryUseSourceEv(ptr noundef nonnull align 8 dereferenceable(80) %14)
          to label %52 unwind label %40

52:                                               ; preds = %51
  %53 = getelementptr inbounds %class.cmSourceFileLocation, ptr %14, i32 0, i32 2
  store i8 0, ptr %53, align 1
  br label %57

54:                                               ; preds = %46
  %55 = load ptr, ptr %7, align 8
  invoke void @_ZN20cmSourceFileLocation15UpdateExtensionERKNSt7__cxx1112basic_stringIcSt11char_traitsIcESaIcEEE(ptr noundef nonnull align 8 dereferenceable(80) %14, ptr noundef nonnull align 8 dereferenceable(32) %55)
          to label %56 unwind label %40

56:                                               ; preds = %54
  br label %57

57:                                               ; preds = %56, %52
  ret void

58:                                               ; preds = %40
  %59 = load ptr, ptr %9, align 8
  %60 = load i32, ptr %10, align 4
  %61 = insertvalue { ptr, i32 } poison, ptr %59, 0
  %62 = insertvalue { ptr, i32 } %61, i32 %60, 1
  resume { ptr, i32 } %62
}