; Function Attrs: mustprogress uwtable
define dso_local void @_ZN20cmSourceFileLocationC2EPK10cmMakefileRKNSt7__cxx1112basic_stringIcSt11char_traitsIcESaIcEEE24cmSourceFileLocationKind(ptr noundef nonnull align 8 dereferenceable(80) initializes((0, 10)) %0, ptr noundef %1, ptr noundef nonnull align 8 dereferenceable(32) %2, i32 noundef %3) unnamed_addr #4 align 2 personality ptr @__gxx_personality_v0 {
  %5 = alloca %"class.std::__cxx11::basic_string", align 8
  %6 = alloca %"class.std::__cxx11::basic_string", align 8
  %7 = alloca %"class.std::__cxx11::basic_string", align 8
  %8 = alloca %"class.std::__cxx11::basic_string", align 8
  store ptr %1, ptr %0, align 8
  %9 = getelementptr inbounds nuw i8, ptr %0, i64 8
  store i8 1, ptr %9, align 8
  %10 = getelementptr inbounds nuw i8, ptr %0, i64 9
  store i8 1, ptr %10, align 1
  %11 = getelementptr inbounds nuw i8, ptr %0, i64 16
  tail call void @_ZNSt7__cxx1112basic_stringIcSt11char_traitsIcESaIcEEC1Ev(ptr noundef nonnull align 8 dereferenceable(32) %11) #12
  %12 = getelementptr inbounds nuw i8, ptr %0, i64 48
  tail call void @_ZNSt7__cxx1112basic_stringIcSt11char_traitsIcESaIcEEC1Ev(ptr noundef nonnull align 8 dereferenceable(32) %12) #12
  %13 = invoke noundef zeroext i1 @_ZN5cmsys11SystemTools14FileIsFullPathERKNSt7__cxx1112basic_stringIcSt11char_traitsIcESaIcEEE(ptr noundef nonnull align 8 dereferenceable(32) %2)
          to label %14 unwind label %24

14:                                               ; preds = %4
  %15 = xor i1 %13, true
  %16 = zext i1 %15 to i8
  store i8 %16, ptr %9, align 8
  store i8 1, ptr %10, align 1
  invoke void @_ZN5cmsys11SystemTools15GetFilenamePathERKNSt7__cxx1112basic_stringIcSt11char_traitsIcESaIcEEE(ptr dead_on_unwind nonnull writable sret(%"class.std::__cxx11::basic_string") align 8 %6, ptr noundef nonnull align 8 dereferenceable(32) %2)
          to label %17 unwind label %24

17:                                               ; preds = %14
  %18 = call noundef nonnull align 8 dereferenceable(32) ptr @_ZNSt7__cxx1112basic_stringIcSt11char_traitsIcESaIcEEaSEOS4_(ptr noundef nonnull align 8 dereferenceable(32) %11, ptr noundef nonnull align 8 dereferenceable(32) %6) #12
  call void @_ZNSt7__cxx1112basic_stringIcSt11char_traitsIcESaIcEED1Ev(ptr noundef nonnull align 8 dereferenceable(32) %6) #12
  %19 = invoke noundef zeroext i1 @_ZN5cmsys11SystemTools14FileIsFullPathERKNSt7__cxx1112basic_stringIcSt11char_traitsIcESaIcEEE(ptr noundef nonnull align 8 dereferenceable(32) %11)
          to label %20 unwind label %24

20:                                               ; preds = %17
  br i1 %19, label %21, label %26

21:                                               ; preds = %20
  invoke void @_ZN5cmsys11SystemTools16CollapseFullPathERKNSt7__cxx1112basic_stringIcSt11char_traitsIcESaIcEEE(ptr dead_on_unwind nonnull writable sret(%"class.std::__cxx11::basic_string") align 8 %7, ptr noundef nonnull align 8 dereferenceable(32) %11)
          to label %22 unwind label %24

22:                                               ; preds = %21
  %23 = call noundef nonnull align 8 dereferenceable(32) ptr @_ZNSt7__cxx1112basic_stringIcSt11char_traitsIcESaIcEEaSEOS4_(ptr noundef nonnull align 8 dereferenceable(32) %11, ptr noundef nonnull align 8 dereferenceable(32) %7) #12
  call void @_ZNSt7__cxx1112basic_stringIcSt11char_traitsIcESaIcEED1Ev(ptr noundef nonnull align 8 dereferenceable(32) %7) #12
  br label %26

24:                                               ; preds = %.noexc, %33, %38, %26, %21, %17, %14, %4
  %25 = landingpad { ptr, i32 }
          cleanup
  call void @_ZNSt7__cxx1112basic_stringIcSt11char_traitsIcESaIcEED1Ev(ptr noundef nonnull align 8 dereferenceable(32) %12) #12
  call void @_ZNSt7__cxx1112basic_stringIcSt11char_traitsIcESaIcEED1Ev(ptr noundef nonnull align 8 dereferenceable(32) %11) #12
  resume { ptr, i32 } %25

26:                                               ; preds = %22, %20
  invoke void @_ZN5cmsys11SystemTools15GetFilenameNameERKNSt7__cxx1112basic_stringIcSt11char_traitsIcESaIcEEE(ptr dead_on_unwind nonnull writable sret(%"class.std::__cxx11::basic_string") align 8 %8, ptr noundef nonnull align 8 dereferenceable(32) %2)
          to label %27 unwind label %24

27:                                               ; preds = %26
  %28 = call noundef nonnull align 8 dereferenceable(32) ptr @_ZNSt7__cxx1112basic_stringIcSt11char_traitsIcESaIcEEaSEOS4_(ptr noundef nonnull align 8 dereferenceable(32) %12, ptr noundef nonnull align 8 dereferenceable(32) %8) #12
  call void @_ZNSt7__cxx1112basic_stringIcSt11char_traitsIcESaIcEED1Ev(ptr noundef nonnull align 8 dereferenceable(32) %8) #12
  %29 = icmp eq i32 %3, 1
  br i1 %29, label %30, label %38

30:                                               ; preds = %27
  call void @llvm.lifetime.start.p0(i64 32, ptr nonnull %5)
  %31 = load i8, ptr %9, align 8
  %32 = trunc i8 %31 to i1
  br i1 %32, label %33, label %37

33:                                               ; preds = %30
  %34 = load ptr, ptr %0, align 8
  %35 = invoke noundef nonnull align 8 dereferenceable(32) ptr @_ZNK10cmMakefile25GetCurrentSourceDirectoryB5cxx11Ev(ptr noundef nonnull align 8 dereferenceable(3520) %34)
          to label %.noexc unwind label %24

.noexc:                                           ; preds = %33
  invoke void @_ZN5cmsys11SystemTools16CollapseFullPathERKNSt7__cxx1112basic_stringIcSt11char_traitsIcESaIcEEES8_(ptr dead_on_unwind nonnull writable sret(%"class.std::__cxx11::basic_string") align 8 %5, ptr noundef nonnull align 8 dereferenceable(32) %11, ptr noundef nonnull align 8 dereferenceable(32) %35)
          to label %.noexc8 unwind label %24

.noexc8:                                          ; preds = %.noexc
  %36 = call noundef nonnull align 8 dereferenceable(32) ptr @_ZNSt7__cxx1112basic_stringIcSt11char_traitsIcESaIcEEaSEOS4_(ptr noundef nonnull align 8 dereferenceable(32) %11, ptr noundef nonnull align 8 dereferenceable(32) %5) #12
  call void @_ZNSt7__cxx1112basic_stringIcSt11char_traitsIcESaIcEED1Ev(ptr noundef nonnull align 8 dereferenceable(32) %5) #12
  store i8 0, ptr %9, align 8
  br label %37

37:                                               ; preds = %.noexc8, %30
  call void @llvm.lifetime.end.p0(i64 32, ptr nonnull %5)
  store i8 0, ptr %10, align 1
  br label %39

38:                                               ; preds = %27
  invoke void @_ZN20cmSourceFileLocation15UpdateExtensionERKNSt7__cxx1112basic_stringIcSt11char_traitsIcESaIcEEE(ptr noundef nonnull align 8 dereferenceable(80) %0, ptr noundef nonnull align 8 dereferenceable(32) %2)
          to label %39 unwind label %24

39:                                               ; preds = %38, %37
  ret void
}